target datalayout = "e-m:e-p270:32:32-p271:32:32-p272:64:64-i64:64-i128:128-f80:128-n8:16:32:64-S128"
target triple = "x86_64-pc-linux-gnu"

%class.ClassUnloadingContext = type <{ ptr, i32, [4 x i8], ptr, i8, i8, [6 x i8] }>
%class.nmethod = type <{ %class.CodeBlob.base, [2 x i8], i64, i64, ptr, %union.anon, ptr, ptr, ptr, ptr, ptr, ptr, ptr, i16, i16, i32, i32, i32, i32, i32, i32, i32, i16, i16, i16, i16, i16, i16, i32, i32, i32, i32, i32, i8, i8, i8, i8, i8, i8, [2 x i8] }>
%class.CodeBlob.base = type <{ ptr, ptr, ptr, i32, i32, i32, i32, i32, i32, i16, i16, i8, i8 }>
%union.anon = type { ptr }

@_ZN12WorkerThread10_worker_idE = external thread_local global i32, align 4

; Function Attrs: mustprogress nounwind uwtable
define linkonce_odr hidden void @_ZN7nmethod15set_is_unlinkedEv(ptr noundef nonnull align 8 dereferenceable(214) %0) #1 comdat align 2 {
  %2 = alloca ptr, align 8
  store ptr %0, ptr %2, align 8
  %3 = load ptr, ptr %2, align 8
  %4 = getelementptr inbounds %class.nmethod, ptr %3, i32 0, i32 37
  %5 = load i8, ptr %4, align 4
  %6 = and i8 %5, -33
  %7 = or i8 %6, 32
  store i8 %7, ptr %4, align 4
  ret void
}

; Function Attrs: mustprogress nounwind uwtable
define linkonce_odr hidden noundef i32 @_ZN12WorkerThread9worker_idEv() #1 comdat align 2 {
  %1 = call align 4 ptr @llvm.threadlocal.address.p0(ptr align 4 @_ZN12WorkerThread10_worker_idE)
  %2 = load i32, ptr %1, align 4
  ret i32 %2
}

; Function Attrs: mustprogress nounwind uwtable
define hidden void @_ZN21ClassUnloadingContext25register_unlinked_nmethodEP7nmethod(ptr noundef nonnull align 8 dereferenceable(26) %0, ptr noundef %1) #1 align 2 {
  %3 = alloca ptr, align 8
  %4 = alloca ptr, align 8
  %5 = alloca i32, align 4
  store ptr %0, ptr %3, align 8
  store ptr %1, ptr %4, align 8
  %6 = load ptr, ptr %3, align 8
  %7 = getelementptr inbounds %class.ClassUnloadingContext, ptr %6, i32 0, i32 1
  %8 = load i32, ptr %7, align 8
  %9 = icmp eq i32 %8, 1
  br i1 %9, label %10, label %11

10:                                               ; preds = %2
  br label %13

11:                                               ; preds = %2
  %12 = call noundef i32 @_ZN12WorkerThread9worker_idEv()
  br label %13

13:                                               ; preds = %11, %10
  %14 = phi i32 [ 0, %10 ], [ %12, %11 ]
  store i32 %14, ptr %5, align 4
  %15 = getelementptr inbounds %class.ClassUnloadingContext, ptr %6, i32 0, i32 3
  %16 = load ptr, ptr %15, align 8
  %17 = load i32, ptr %5, align 4
  %18 = zext i32 %17 to i64
  %19 = getelementptr inbounds ptr, ptr %16, i64 %18
  %20 = load ptr, ptr %19, align 8
  %21 = call noundef i32 @_ZN26GrowableArrayWithAllocatorIP7nmethod18GrowableArrayCHeapIS1_L8MEMFLAGS5EEE6appendERKS1_(ptr noundef nonnull align 8 dereferenceable(16) %20, ptr noundef nonnull align 8 dereferenceable(8) %4)
  %22 = load ptr, ptr %4, align 8
  call void @_ZN7nmethod15set_is_unlinkedEv(ptr noundef nonnull align 8 dereferenceable(214) %22)
  ret void
}