; Function Attrs: mustprogress nounwind uwtable
define hidden void @_ZN21ClassUnloadingContext25register_unlinked_nmethodEP7nmethod(ptr nocapture noundef nonnull readonly align 8 dereferenceable(26) %0, ptr noundef %1) local_unnamed_addr #0 align 2 {
  %3 = alloca ptr, align 8
  store ptr %1, ptr %3, align 8
  %4 = getelementptr inbounds i8, ptr %0, i64 8
  %5 = load i32, ptr %4, align 8
  %6 = icmp eq i32 %5, 1
  %7 = tail call align 4 ptr @llvm.threadlocal.address.p0(ptr align 4 @_ZN12WorkerThread10_worker_idE)
  %8 = load i32, ptr %7, align 4
  %narrow = select i1 %6, i32 0, i32 %8
  %9 = zext i32 %narrow to i64
  %10 = getelementptr inbounds i8, ptr %0, i64 16
  %11 = load ptr, ptr %10, align 8
  %12 = getelementptr inbounds ptr, ptr %11, i64 %9
  %13 = load ptr, ptr %12, align 8
  %14 = call noundef i32 @_ZN26GrowableArrayWithAllocatorIP7nmethod18GrowableArrayCHeapIS1_L8MEMFLAGS5EEE6appendERKS1_(ptr noundef nonnull align 8 dereferenceable(16) %13, ptr noundef nonnull align 8 dereferenceable(8) %3)
  %15 = load ptr, ptr %3, align 8
  %16 = getelementptr inbounds i8, ptr %15, i64 212
  %17 = load i8, ptr %16, align 4
  %18 = or i8 %17, 32
  store i8 %18, ptr %16, align 4
  ret void
}